Certificate:
    Data:
        Version: 3 (0x2)
        Serial Number: 1 (0x1)
        Signature Algorithm: sha256WithRSAEncryption
        Issuer: C=CN, ST=GuangDong, O=Demo Ca Organization, CN=Demo Root CA
        Validity
            Not Before: Sep 13 04:11:43 2023 GMT
            Not After : Sep 10 04:11:43 2033 GMT
        Subject: C=CN, ST=GuangDong, O=Demo Server Organization, OU=Demo Server, CN=localhost
        Subject Public Key Info:
            Public Key Algorithm: rsaEncryption
                RSA Public-Key: (2048 bit)
                Modulus:
                    00:c6:30:92:b2:da:fa:bc:c2:d0:8d:71:96:e2:ed:
                    94:2c:4f:f4:16:57:3e:77:54:fa:9a:6d:cd:08:f3:
                    3e:d4:96:08:22:46:8e:48:fd:1b:85:ec:a0:e4:08:
                    aa:38:2d:d4:f2:61:e6:9c:7b:55:2f:5d:cc:12:3f:
                    bc:72:0f:d9:b8:18:84:33:3f:cd:0d:27:b9:46:60:
                    51:57:a2:8d:fc:2d:b3:ee:25:10:c5:7c:2e:0e:47:
                    18:b6:0e:9a:c4:ad:5a:96:da:e4:10:29:3c:e4:e6:
                    15:79:37:99:25:03:70:b0:ce:be:14:01:c0:01:40:
                    7e:c9:8d:a7:90:21:9b:3f:64:4b:d4:9a:10:d6:de:
                    0a:74:a8:4b:0f:51:55:1a:e4:6d:45:2f:a7:16:3a:
                    40:49:52:a3:8d:11:d2:15:d9:58:1c:b0:7d:19:ad:
                    74:b2:38:aa:68:dd:69:cd:86:00:c2:21:f2:26:e3:
                    af:16:2c:3c:7d:f7:5d:88:33:48:fc:d5:86:24:9e:
                    ee:ef:36:04:38:22:a8:b9:e7:78:f6:0f:57:b4:26:
                    0a:9d:db:99:ff:07:a6:e5:31:a3:c0:bd:47:d4:27:
                    ab:0e:f5:c4:34:cb:6c:b2:ab:39:05:18:37:56:4e:
                    8a:29:8b:1e:23:1f:a5:e4:f7:e2:34:f4:69:6d:88:
                    8f:5b
                Exponent: 65537 (0x10001)
        X509v3 extensions:
            X509v3 Basic Constraints: 
                CA:FALSE
            X509v3 Key Usage: 
                Digital Signature, Non Repudiation, Key Encipherment
            X509v3 Subject Alternative Name: 
                DNS:www.localhost, DNS:web.localhost, DNS:app.localhost
    Signature Algorithm: sha256WithRSAEncryption
         2c:04:a2:22:18:71:f1:2f:87:b4:e8:76:a0:5b:a3:46:9e:11:
         75:77:02:13:cd:2b:b8:a4:6c:c5:3e:02:df:4b:68:e3:9c:b4:
         7b:f9:1c:cd:c6:89:f3:6e:26:c9:f1:3c:e9:87:78:73:c0:8f:
         c8:23:c5:a9:18:50:ee:9a:33:55:8c:dd:13:98:0a:e5:5c:c5:
         a1:24:cd:03:ea:bd:ba:3c:72:84:f7:23:be:e9:65:3d:19:44:
         4e:db:08:93:64:49:57:87:f0:b2:12:31:9c:2c:bc:f7:8e:2d:
         1e:1c:ab:02:68:08:ed:73:df:c1:9a:e7:b0:d5:10:de:75:cc:
         aa:f7:a6:a1:d9:50:77:e2:6b:90:e7:13:cf:fd:e3:97:3a:64:
         2f:d0:be:df:5a:fe:c1:37:ae:d1:bb:41:47:04:8b:25:3b:3e:
         cd:8e:75:40:c1:87:eb:5f:9b:6e:73:83:e6:cf:21:83:c9:81:
         ec:f1:de:4a:d0:d9:fa:f9:16:07:a4:4a:e0:d6:2d:d5:76:6c:
         9d:2a:7d:5f:87:32:5c:ab:25:eb:ef:91:a3:da:9c:f1:57:8d:
         7f:6f:71:10:24:63:e3:fc:18:c2:4a:4a:a8:81:cb:2e:81:22:
         91:3f:f0:1a:b0:d0:a4:b9:22:a5:27:61:47:f9:7e:56:91:a1:
         3e:78:04:6b
-----BEGIN CERTIFICATE-----
MIIDkjCCAnqgAwIBAgIBATANBgkqhkiG9w0BAQsFADBXMQswCQYDVQQGEwJDTjES
MBAGA1UECAwJR3VhbmdEb25nMR0wGwYDVQQKDBREZW1vIENhIE9yZ2FuaXphdGlv
bjEVMBMGA1UEAwwMRGVtbyBSb290IENBMB4XDTIzMDkxMzA0MTE0M1oXDTMzMDkx
MDA0MTE0M1owbjELMAkGA1UEBhMCQ04xEjAQBgNVBAgMCUd1YW5nRG9uZzEhMB8G
A1UECgwYRGVtbyBTZXJ2ZXIgT3JnYW5pemF0aW9uMRQwEgYDVQQLDAtEZW1vIFNl
cnZlcjESMBAGA1UEAwwJbG9jYWxob3N0MIIBIjANBgkqhkiG9w0BAQEFAAOCAQ8A
MIIBCgKCAQEAxjCSstr6vMLQjXGW4u2ULE/0Flc+d1T6mm3NCPM+1JYIIkaOSP0b
heyg5AiqOC3U8mHmnHtVL13MEj+8cg/ZuBiEMz/NDSe5RmBRV6KN/C2z7iUQxXwu
DkcYtg6axK1altrkECk85OYVeTeZJQNwsM6+FAHAAUB+yY2nkCGbP2RL1JoQ1t4K
dKhLD1FVGuRtRS+nFjpASVKjjRHSFdlYHLB9Ga10sjiqaN1pzYYAwiHyJuOvFiw8
ffddiDNI/NWGJJ7u7zYEOCKoued49g9XtCYKnduZ/wem5TGjwL1H1CerDvXENMts
sqs5BRg3Vk6KKYseIx+l5PfiNPRpbYiPWwIDAQABo1IwUDAJBgNVHRMEAjAAMAsG
A1UdDwQEAwIF4DA2BgNVHREELzAtgg13d3cubG9jYWxob3N0gg13ZWIubG9jYWxo
b3N0gg1hcHAubG9jYWxob3N0MA0GCSqGSIb3DQEBCwUAA4IBAQAsBKIiGHHxL4e0
6HagW6NGnhF1dwITzSu4pGzFPgLfS2jjnLR7+RzNxonzbibJ8Tzph3hzwI/II8Wp
GFDumjNVjN0TmArlXMWhJM0D6r26PHKE9yO+6WU9GURO2wiTZElXh/CyEjGcLLz3
ji0eHKsCaAjtc9/Bmuew1RDedcyq96ah2VB34muQ5xPP/eOXOmQv0L7fWv7BN67R
u0FHBIslOz7NjnVAwYfrX5tuc4PmzyGDyYHs8d5K0Nn6+RYHpErg1i3VdmydKn1f
hzJcqyXr75Gj2pzxV41/b3EQJGPj/BjCSkqogcsugSKRP/AasNCkuSKlJ2FH+X5W
kaE+eARr
-----END CERTIFICATE-----
